; Function Attrs: nofree norecurse nosync nounwind memory(argmem: readwrite) uwtable
define void @lv_freetype_set_cbs_glyph(ptr noundef captures(address_is_null) %0) local_unnamed_addr #6 {
  %.not = icmp eq ptr %0, null
  br i1 %.not, label %.preheader, label %2

.preheader:                                       ; preds = %1, %.preheader
  br label %.preheader

2:                                                ; preds = %1
  %3 = load i32, ptr %0, align 8, !tbaa !72
  %4 = icmp eq i32 %3, 1600079444
  br i1 %4, label %5, label %.preheader3

.preheader3:                                      ; preds = %2, %.preheader3
  br label %.preheader3

5:                                                ; preds = %2
  %6 = getelementptr inbounds nuw i8, ptr %0, i64 8
  store ptr @freetype_get_glyph_dsc_cb, ptr %6, align 8, !tbaa !73
  ret void
}